; Function Attrs: nounwind sspstrong uwtable
define internal fastcc i32 @constant_arg(i64 noundef %0, ptr noundef readonly captures(none) %1, ptr noundef %2) unnamed_addr #0 {
  %4 = alloca i32, align 4
  call void @llvm.lifetime.start.p0(i64 4, ptr nonnull %4) #6
  %5 = and i64 %0, 255
  %6 = icmp eq i64 %5, 12
  br i1 %6, label %RB_SYMBOL_P.exit.thread, label %7

7:                                                ; preds = %3
  %8 = icmp eq i64 %0, 0
  %9 = and i64 %0, 7
  %10 = icmp ne i64 %9, 0
  %11 = or i1 %8, %10
  br i1 %11, label %RB_SYMBOL_P.exit.thread10, label %RB_SYMBOL_P.exit

RB_SYMBOL_P.exit:                                 ; preds = %7
  %12 = inttoptr i64 %0 to ptr
  %13 = load i64, ptr %12, align 8, !tbaa !13
  %14 = and i64 %13, 31
  %15 = icmp eq i64 %14, 20
  br i1 %15, label %RB_SYMBOL_P.exit.thread, label %RB_SYMBOL_P.exit.thread10

RB_SYMBOL_P.exit.thread:                          ; preds = %3, %RB_SYMBOL_P.exit
  %16 = tail call i64 @rb_sym2str(i64 noundef %0) #6
  br label %19

RB_SYMBOL_P.exit.thread10:                        ; preds = %7, %RB_SYMBOL_P.exit
  %17 = tail call i64 @rb_check_string_type(i64 noundef %0) #6
  %18 = icmp eq i64 %17, 4
  br i1 %18, label %31, label %19

19:                                               ; preds = %RB_SYMBOL_P.exit.thread10, %RB_SYMBOL_P.exit.thread
  %.0 = phi i64 [ %16, %RB_SYMBOL_P.exit.thread ], [ %17, %RB_SYMBOL_P.exit.thread10 ]
  %20 = inttoptr i64 %.0 to ptr
  %21 = load i64, ptr %20, align 8, !tbaa !13, !noalias !16
  %22 = and i64 %21, 8192
  %.not.i.i = icmp eq i64 %22, 0
  %23 = getelementptr inbounds nuw i8, ptr %20, i64 24
  br i1 %.not.i.i, label %RSTRING_PTR.exit, label %24

24:                                               ; preds = %19
  %.sroa.2.0.copyload.i = load ptr, ptr %23, align 8
  br label %RSTRING_PTR.exit

RSTRING_PTR.exit:                                 ; preds = %19, %24
  %.sroa.2.0.i = phi ptr [ %.sroa.2.0.copyload.i, %24 ], [ %23, %19 ]
  %25 = getelementptr inbounds nuw i8, ptr %20, i64 16
  %26 = load i64, ptr %25, align 8, !tbaa !19
  %27 = call i32 %1(ptr noundef %.sroa.2.0.i, i64 noundef %26, ptr noundef nonnull %4) #6
  %28 = icmp eq i32 %27, -1
  br i1 %28, label %29, label %RSTRING_PTR.exit._crit_edge

RSTRING_PTR.exit._crit_edge:                      ; preds = %RSTRING_PTR.exit
  %.pre = load i32, ptr %4, align 4, !tbaa !6
  br label %38

29:                                               ; preds = %RSTRING_PTR.exit
  %30 = load i64, ptr @rb_eSocket, align 8, !tbaa !21
  call void (i64, ptr, ...) @rb_raise(i64 noundef %30, ptr noundef nonnull @.str.436, ptr noundef %2, ptr noundef %.sroa.2.0.i) #7
  unreachable

31:                                               ; preds = %RB_SYMBOL_P.exit.thread10
  %32 = and i64 %0, 1
  %.not.i = icmp eq i64 %32, 0
  br i1 %.not.i, label %35, label %33

33:                                               ; preds = %31
  %34 = tail call i64 @rb_fix2int(i64 noundef %0) #6
  br label %rb_num2int_inline.exit

35:                                               ; preds = %31
  %36 = tail call i64 @rb_num2int(i64 noundef %0) #6
  br label %rb_num2int_inline.exit

rb_num2int_inline.exit:                           ; preds = %33, %35
  %.0.i = phi i64 [ %34, %33 ], [ %36, %35 ]
  %37 = trunc i64 %.0.i to i32
  br label %38

38:                                               ; preds = %RSTRING_PTR.exit._crit_edge, %rb_num2int_inline.exit
  %39 = phi i32 [ %.pre, %RSTRING_PTR.exit._crit_edge ], [ %37, %rb_num2int_inline.exit ]
  call void @llvm.lifetime.end.p0(i64 4, ptr nonnull %4) #6
  ret i32 %39
}